; ModuleID = 'source-C-CXX/8/881.c'
source_filename = "source-C-CXX/8/881.c"
target datalayout = "e-m:e-p270:32:32-p271:32:32-p272:64:64-i64:64-f80:128-n8:16:32:64-S128"
target triple = "x86_64-pc-linux-gnu"

@.str = private unnamed_addr constant [3 x i8] c"%d\00", align 1
@.str.1 = private unnamed_addr constant [6 x i8] c"%s %d\00", align 1

; Function Attrs: nofree nounwind sspstrong uwtable
define dso_local i32 @main() local_unnamed_addr #0 {
  %1 = alloca i32, align 4
  %2 = alloca [100 x i32], align 16
  %3 = alloca [100 x [10 x i8]], align 16
  %4 = alloca [10 x i8], align 1
  %5 = bitcast i32* %1 to i8*
  call void @llvm.lifetime.start.p0i8(i64 4, i8* nonnull %5) #5
  %6 = bitcast [100 x i32]* %2 to i8*
  call void @llvm.lifetime.start.p0i8(i64 400, i8* nonnull %6) #5
  %7 = call i32 (i8*, ...) @__isoc99_scanf(i8* getelementptr inbounds ([3 x i8], [3 x i8]* @.str, i64 0, i64 0), i32* nonnull %1)
  %8 = getelementptr inbounds [100 x [10 x i8]], [100 x [10 x i8]]* %3, i64 0, i64 0, i64 0
  call void @llvm.lifetime.start.p0i8(i64 1000, i8* nonnull %8) #5
  %9 = getelementptr inbounds [10 x i8], [10 x i8]* %4, i64 0, i64 0
  call void @llvm.lifetime.start.p0i8(i64 10, i8* nonnull %9) #5
  %10 = load i32, i32* %1, align 4, !tbaa !5
  %11 = icmp sgt i32 %10, 0
  br i1 %11, label %14, label %61

12:                                               ; preds = %14
  %13 = icmp sgt i32 %20, 1
  br i1 %13, label %23, label %30

14:                                               ; preds = %0, %14
  %15 = phi i64 [ %19, %14 ], [ 0, %0 ]
  %16 = getelementptr inbounds [100 x [10 x i8]], [100 x [10 x i8]]* %3, i64 0, i64 %15, i64 0
  %17 = getelementptr inbounds [100 x i32], [100 x i32]* %2, i64 0, i64 %15
  %18 = call i32 (i8*, ...) @__isoc99_scanf(i8* getelementptr inbounds ([6 x i8], [6 x i8]* @.str.1, i64 0, i64 0), i8* nonnull %16, i32* nonnull %17)
  %19 = add nuw nsw i64 %15, 1
  %20 = load i32, i32* %1, align 4, !tbaa !5
  %21 = sext i32 %20 to i64
  %22 = icmp slt i64 %19, %21
  br i1 %22, label %14, label %12, !llvm.loop !9

23:                                               ; preds = %12, %50
  %24 = phi i32 [ %26, %50 ], [ %20, %12 ]
  %25 = phi i32 [ %51, %50 ], [ 1, %12 ]
  %26 = add i32 %24, -1
  %27 = icmp sgt i32 %20, %25
  br i1 %27, label %28, label %50

28:                                               ; preds = %23
  %29 = zext i32 %26 to i64
  br label %32

30:                                               ; preds = %50, %12
  %31 = icmp sgt i32 %20, 0
  br i1 %31, label %53, label %61

32:                                               ; preds = %28, %48
  %33 = phi i64 [ 0, %28 ], [ %34, %48 ]
  %34 = add nuw nsw i64 %33, 1
  %35 = getelementptr inbounds [100 x i32], [100 x i32]* %2, i64 0, i64 %34
  %36 = load i32, i32* %35, align 4, !tbaa !5
  %37 = icmp sgt i32 %36, 59
  br i1 %37, label %38, label %48

38:                                               ; preds = %32
  %39 = getelementptr inbounds [100 x i32], [100 x i32]* %2, i64 0, i64 %33
  %40 = load i32, i32* %39, align 4, !tbaa !5
  %41 = icmp sgt i32 %36, %40
  br i1 %41, label %42, label %48

42:                                               ; preds = %38
  store i32 %36, i32* %39, align 4, !tbaa !5
  store i32 %40, i32* %35, align 4, !tbaa !5
  %43 = getelementptr inbounds [100 x [10 x i8]], [100 x [10 x i8]]* %3, i64 0, i64 %33, i64 0
  %44 = call i8* @strcpy(i8* noundef nonnull %9, i8* noundef nonnull %43) #5
  %45 = getelementptr inbounds [100 x [10 x i8]], [100 x [10 x i8]]* %3, i64 0, i64 %34, i64 0
  %46 = call i8* @strcpy(i8* noundef nonnull %43, i8* noundef nonnull %45) #5
  %47 = call i8* @strcpy(i8* noundef nonnull %45, i8* noundef nonnull %9) #5
  br label %48

48:                                               ; preds = %32, %38, %42
  %49 = icmp eq i64 %34, %29
  br i1 %49, label %50, label %32, !llvm.loop !11

50:                                               ; preds = %48, %23
  %51 = add nuw nsw i32 %25, 1
  %52 = icmp eq i32 %51, %20
  br i1 %52, label %30, label %23, !llvm.loop !12

53:                                               ; preds = %30, %53
  %54 = phi i64 [ %57, %53 ], [ 0, %30 ]
  %55 = getelementptr inbounds [100 x [10 x i8]], [100 x [10 x i8]]* %3, i64 0, i64 %54, i64 0
  %56 = call i32 @puts(i8* nonnull %55)
  %57 = add nuw nsw i64 %54, 1
  %58 = load i32, i32* %1, align 4, !tbaa !5
  %59 = sext i32 %58 to i64
  %60 = icmp slt i64 %57, %59
  br i1 %60, label %53, label %61, !llvm.loop !13

61:                                               ; preds = %53, %0, %30
  call void @llvm.lifetime.end.p0i8(i64 10, i8* nonnull %9) #5
  call void @llvm.lifetime.end.p0i8(i64 1000, i8* nonnull %8) #5
  call void @llvm.lifetime.end.p0i8(i64 400, i8* nonnull %6) #5
  call void @llvm.lifetime.end.p0i8(i64 4, i8* nonnull %5) #5
  ret i32 0
}

; Function Attrs: argmemonly mustprogress nofree nosync nounwind willreturn
declare void @llvm.lifetime.start.p0i8(i64 immarg, i8* nocapture) #1

; Function Attrs: nofree nounwind
declare noundef i32 @__isoc99_scanf(i8* nocapture noundef readonly, ...) local_unnamed_addr #2

; Function Attrs: argmemonly mustprogress nofree nounwind willreturn
declare i8* @strcpy(i8* noalias returned writeonly, i8* noalias nocapture readonly) local_unnamed_addr #3

; Function Attrs: argmemonly mustprogress nofree nosync nounwind willreturn
declare void @llvm.lifetime.end.p0i8(i64 immarg, i8* nocapture) #1

; Function Attrs: nofree nounwind
declare noundef i32 @puts(i8* nocapture noundef readonly) local_unnamed_addr #4


!llvm.module.flags = !{!0, !1, !2, !3}
!llvm.ident = !{!4}

!0 = !{i32 1, !"wchar_size", i32 4}
!1 = !{i32 7, !"PIC Level", i32 2}
!2 = !{i32 7, !"PIE Level", i32 2}
!3 = !{i32 7, !"uwtable", i32 1}
!4 = !{!"clang version 13.0.0"}
!5 = !{!6, !6, i64 0}
!6 = !{!"int", !7, i64 0}
!7 = !{!"omnipotent char", !8, i64 0}
!8 = !{!"Simple C/C++ TBAA"}
!9 = distinct !{!9, !10}
!10 = !{!"llvm.loop.mustprogress"}
!11 = distinct !{!11, !10}
!12 = distinct !{!12, !10}
!13 = distinct !{!13, !10}
